target datalayout = "e-m:e-p270:32:32-p271:32:32-p272:64:64-i64:64-i128:128-f80:128-n8:16:32:64-S128"
target triple = "x86_64-pc-linux-gnu"

; Function Attrs: nounwind uwtable
define hidden zeroext i1 @_mi_prim_getenv(ptr noundef %0, ptr noundef %1, i64 noundef %2) #0 {
  %4 = alloca i1, align 1
  %5 = alloca ptr, align 8
  %6 = alloca ptr, align 8
  %7 = alloca i64, align 8
  %8 = alloca ptr, align 8
  %9 = alloca [65 x i8], align 16
  %10 = alloca i64, align 8
  %11 = alloca i64, align 8
  %12 = alloca i32, align 4
  store ptr %0, ptr %5, align 8, !tbaa !35
  store ptr %1, ptr %6, align 8, !tbaa !35
  store i64 %2, ptr %7, align 8, !tbaa !8
  %13 = call zeroext i1 @_mi_preloading() #8
  br i1 %13, label %14, label %15

14:                                               ; preds = %3
  store i1 false, ptr %4, align 1
  br label %59

15:                                               ; preds = %3
  call void @llvm.lifetime.start.p0(i64 8, ptr %8) #6
  %16 = load ptr, ptr %5, align 8, !tbaa !35
  %17 = call ptr @getenv(ptr noundef %16) #7
  store ptr %17, ptr %8, align 8, !tbaa !35
  %18 = load ptr, ptr %8, align 8, !tbaa !35
  %19 = icmp eq ptr %18, null
  br i1 %19, label %20, label %44

20:                                               ; preds = %15
  call void @llvm.lifetime.start.p0(i64 65, ptr %9) #6
  call void @llvm.lifetime.start.p0(i64 8, ptr %10) #6
  %21 = load ptr, ptr %5, align 8, !tbaa !35
  %22 = call i64 @_mi_strnlen(ptr noundef %21, i64 noundef 64) #8
  store i64 %22, ptr %10, align 8, !tbaa !8
  call void @llvm.lifetime.start.p0(i64 8, ptr %11) #6
  store i64 0, ptr %11, align 8, !tbaa !8
  br label %23

23:                                               ; preds = %36, %20
  %24 = load i64, ptr %11, align 8, !tbaa !8
  %25 = load i64, ptr %10, align 8, !tbaa !8
  %26 = icmp ult i64 %24, %25
  br i1 %26, label %28, label %27

27:                                               ; preds = %23
  call void @llvm.lifetime.end.p0(i64 8, ptr %11) #6
  br label %39

28:                                               ; preds = %23
  %29 = load ptr, ptr %5, align 8, !tbaa !35
  %30 = load i64, ptr %11, align 8, !tbaa !8
  %31 = getelementptr inbounds nuw i8, ptr %29, i64 %30
  %32 = load i8, ptr %31, align 1, !tbaa !22
  %33 = call signext i8 @_mi_toupper(i8 noundef signext %32) #8
  %34 = load i64, ptr %11, align 8, !tbaa !8
  %35 = getelementptr inbounds nuw [65 x i8], ptr %9, i64 0, i64 %34
  store i8 %33, ptr %35, align 1, !tbaa !22
  br label %36

36:                                               ; preds = %28
  %37 = load i64, ptr %11, align 8, !tbaa !8
  %38 = add i64 %37, 1
  store i64 %38, ptr %11, align 8, !tbaa !8
  br label %23, !llvm.loop !54

39:                                               ; preds = %27
  %40 = load i64, ptr %10, align 8, !tbaa !8
  %41 = getelementptr inbounds nuw [65 x i8], ptr %9, i64 0, i64 %40
  store i8 0, ptr %41, align 1, !tbaa !22
  %42 = getelementptr inbounds [65 x i8], ptr %9, i64 0, i64 0
  %43 = call ptr @getenv(ptr noundef %42) #7
  store ptr %43, ptr %8, align 8, !tbaa !35
  call void @llvm.lifetime.end.p0(i64 8, ptr %10) #6
  call void @llvm.lifetime.end.p0(i64 65, ptr %9) #6
  br label %44

44:                                               ; preds = %39, %15
  %45 = load ptr, ptr %8, align 8, !tbaa !35
  %46 = icmp eq ptr %45, null
  br i1 %46, label %53, label %47

47:                                               ; preds = %44
  %48 = load ptr, ptr %8, align 8, !tbaa !35
  %49 = load i64, ptr %7, align 8, !tbaa !8
  %50 = call i64 @_mi_strnlen(ptr noundef %48, i64 noundef %49) #8
  %51 = load i64, ptr %7, align 8, !tbaa !8
  %52 = icmp uge i64 %50, %51
  br i1 %52, label %53, label %54

53:                                               ; preds = %47, %44
  store i1 false, ptr %4, align 1
  store i32 1, ptr %12, align 4
  br label %58

54:                                               ; preds = %47
  %55 = load ptr, ptr %6, align 8, !tbaa !35
  %56 = load ptr, ptr %8, align 8, !tbaa !35
  %57 = load i64, ptr %7, align 8, !tbaa !8
  call void @_mi_strlcpy(ptr noundef %55, ptr noundef %56, i64 noundef %57) #8
  store i1 true, ptr %4, align 1
  store i32 1, ptr %12, align 4
  br label %58

58:                                               ; preds = %54, %53
  call void @llvm.lifetime.end.p0(i64 8, ptr %8) #6
  br label %59

59:                                               ; preds = %58, %14
  %60 = load i1, ptr %4, align 1
  ret i1 %60
}