; Function Attrs: nounwind uwtable
define hidden noundef zeroext i1 @_mi_prim_getenv(ptr noundef %0, ptr noundef %1, i64 noundef %2) local_unnamed_addr #0 {
  %4 = alloca [65 x i8], align 16
  %5 = tail call zeroext i1 @_mi_preloading() #10
  br i1 %5, label %21, label %6

6:                                                ; preds = %3
  %7 = tail call ptr @getenv(ptr noundef %0) #10
  %8 = icmp eq ptr %7, null
  br i1 %8, label %9, label %.thread

9:                                                ; preds = %6
  call void @llvm.lifetime.start.p0(i64 65, ptr nonnull %4) #11
  %10 = tail call i64 @_mi_strnlen(ptr noundef %0, i64 noundef 64) #10
  %.not25 = icmp eq i64 %10, 0
  br i1 %.not25, label %._crit_edge, label %.lr.ph

.lr.ph:                                           ; preds = %9, %.lr.ph
  %.024 = phi i64 [ %15, %.lr.ph ], [ 0, %9 ]
  %11 = getelementptr inbounds nuw i8, ptr %0, i64 %.024
  %12 = load i8, ptr %11, align 1, !tbaa !33
  %13 = tail call signext i8 @_mi_toupper(i8 noundef signext %12) #10
  %14 = getelementptr inbounds nuw [65 x i8], ptr %4, i64 0, i64 %.024
  store i8 %13, ptr %14, align 1, !tbaa !33
  %15 = add nuw i64 %.024, 1
  %exitcond.not = icmp eq i64 %15, %10
  br i1 %exitcond.not, label %._crit_edge, label %.lr.ph, !llvm.loop !38

._crit_edge:                                      ; preds = %.lr.ph, %9
  %16 = getelementptr inbounds nuw [65 x i8], ptr %4, i64 0, i64 %10
  store i8 0, ptr %16, align 1, !tbaa !33
  %17 = call ptr @getenv(ptr noundef nonnull %4) #10
  call void @llvm.lifetime.end.p0(i64 65, ptr nonnull %4) #11
  %18 = icmp eq ptr %17, null
  br i1 %18, label %21, label %.thread

.thread:                                          ; preds = %6, %._crit_edge
  %.01823 = phi ptr [ %17, %._crit_edge ], [ %7, %6 ]
  %19 = tail call i64 @_mi_strnlen(ptr noundef nonnull %.01823, i64 noundef %2) #10
  %.not = icmp ult i64 %19, %2
  br i1 %.not, label %20, label %21

20:                                               ; preds = %.thread
  tail call void @_mi_strlcpy(ptr noundef %1, ptr noundef nonnull %.01823, i64 noundef %2) #10
  br label %21

21:                                               ; preds = %20, %.thread, %._crit_edge, %3
  %.017 = phi i1 [ false, %3 ], [ true, %20 ], [ false, %.thread ], [ false, %._crit_edge ]
  ret i1 %.017
}